target datalayout = "e-m:e-p270:32:32-p271:32:32-p272:64:64-i64:64-i128:128-f80:128-n8:16:32:64-S128"
target triple = "x86_64-pc-linux-gnu"

; Function Attrs: mustprogress uwtable
define dso_local noundef i32 @_Z17luaL_getmetafieldP9lua_StateiPKc(ptr noundef %0, i32 noundef %1, ptr noundef %2) #3 {
  %4 = alloca i32, align 4
  %5 = alloca ptr, align 8
  %6 = alloca i32, align 4
  %7 = alloca ptr, align 8
  store ptr %0, ptr %5, align 8
  store i32 %1, ptr %6, align 4
  store ptr %2, ptr %7, align 8
  %8 = load ptr, ptr %5, align 8
  %9 = load i32, ptr %6, align 4
  %10 = call noundef i32 @_Z16lua_getmetatableP9lua_Statei(ptr noundef %8, i32 noundef %9)
  %11 = icmp ne i32 %10, 0
  br i1 %11, label %13, label %12

12:                                               ; preds = %3
  store i32 0, ptr %4, align 4
  br label %25

13:                                               ; preds = %3
  %14 = load ptr, ptr %5, align 8
  %15 = load ptr, ptr %7, align 8
  call void @_Z14lua_pushstringP9lua_StatePKc(ptr noundef %14, ptr noundef %15)
  %16 = load ptr, ptr %5, align 8
  %17 = call noundef i32 @_Z10lua_rawgetP9lua_Statei(ptr noundef %16, i32 noundef -2)
  %18 = load ptr, ptr %5, align 8
  %19 = call noundef i32 @_Z8lua_typeP9lua_Statei(ptr noundef %18, i32 noundef -1)
  %20 = icmp eq i32 %19, 0
  br i1 %20, label %21, label %23

21:                                               ; preds = %13
  %22 = load ptr, ptr %5, align 8
  call void @_Z10lua_settopP9lua_Statei(ptr noundef %22, i32 noundef -3)
  store i32 0, ptr %4, align 4
  br label %25

23:                                               ; preds = %13
  %24 = load ptr, ptr %5, align 8
  call void @_Z10lua_removeP9lua_Statei(ptr noundef %24, i32 noundef -2)
  store i32 1, ptr %4, align 4
  br label %25

25:                                               ; preds = %23, %21, %12
  %26 = load i32, ptr %4, align 4
  ret i32 %26
}