; Function Attrs: mustprogress uwtable
define dso_local noundef range(i32 0, 2) i32 @_Z17luaL_getmetafieldP9lua_StateiPKc(ptr noundef %0, i32 noundef %1, ptr noundef %2) local_unnamed_addr #2 {
  %4 = tail call noundef i32 @_Z16lua_getmetatableP9lua_Statei(ptr noundef %0, i32 noundef %1)
  %.not = icmp eq i32 %4, 0
  br i1 %.not, label %11, label %5

5:                                                ; preds = %3
  tail call void @_Z14lua_pushstringP9lua_StatePKc(ptr noundef %0, ptr noundef %2)
  %6 = tail call noundef i32 @_Z10lua_rawgetP9lua_Statei(ptr noundef %0, i32 noundef -2)
  %7 = tail call noundef i32 @_Z8lua_typeP9lua_Statei(ptr noundef %0, i32 noundef -1)
  %8 = icmp eq i32 %7, 0
  br i1 %8, label %9, label %10

9:                                                ; preds = %5
  tail call void @_Z10lua_settopP9lua_Statei(ptr noundef %0, i32 noundef -3)
  br label %11

10:                                               ; preds = %5
  tail call void @_Z10lua_removeP9lua_Statei(ptr noundef %0, i32 noundef -2)
  br label %11

11:                                               ; preds = %3, %10, %9
  %.0 = phi i32 [ 0, %9 ], [ 1, %10 ], [ 0, %3 ]
  ret i32 %.0
}